target datalayout = "e-m:e-p270:32:32-p271:32:32-p272:64:64-i64:64-i128:128-f80:128-n8:16:32:64-S128"
target triple = "x86_64-pc-linux-gnu"

%class.b3OverlappingPairCache = type { ptr }
%class.b3AlignedObjectArray = type <{ [4 x i8], i32, i32, [4 x i8], ptr, i8, [7 x i8] }>
%struct.b3Int4 = type { %union.anon }
%union.anon = type { %struct.anon }
%struct.anon = type { i32, i32, i32, i32 }
%class.b3SortedOverlappingPairCache = type { %class.b3OverlappingPairCache, %class.b3AlignedObjectArray, i8, i8, ptr }

@b3g_overlappingPairs = dso_local global i32 0, align 4

; Function Attrs: inlinehint mustprogress nounwind uwtable
define linkonce_odr dso_local void @_ZN20b3AlignedObjectArrayI6b3Int4E8pop_backEv(ptr noundef nonnull align 8 dereferenceable(25) %0) #1 comdat align 2 {
  %2 = alloca ptr, align 8
  store ptr %0, ptr %2, align 8, !tbaa !26
  %3 = load ptr, ptr %2, align 8
  %4 = getelementptr inbounds nuw %class.b3AlignedObjectArray, ptr %3, i32 0, i32 1
  %5 = load i32, ptr %4, align 4, !tbaa !31
  %6 = add nsw i32 %5, -1
  store i32 %6, ptr %4, align 4, !tbaa !31
  ret void
}

; Function Attrs: mustprogress nounwind uwtable
define linkonce_odr dso_local void @_ZN20b3AlignedObjectArrayI6b3Int4E4swapEii(ptr noundef nonnull align 8 dereferenceable(25) %0, i32 noundef %1, i32 noundef %2) #4 comdat align 2 {
  %4 = alloca ptr, align 8
  %5 = alloca i32, align 4
  %6 = alloca i32, align 4
  %7 = alloca %struct.b3Int4, align 16
  store ptr %0, ptr %4, align 8, !tbaa !26
  store i32 %1, ptr %5, align 4, !tbaa !23
  store i32 %2, ptr %6, align 4, !tbaa !23
  %8 = load ptr, ptr %4, align 8
  call void @llvm.lifetime.start.p0(i64 16, ptr %7) #10
  %9 = getelementptr inbounds nuw %class.b3AlignedObjectArray, ptr %8, i32 0, i32 4
  %10 = load ptr, ptr %9, align 8, !tbaa !33
  %11 = load i32, ptr %5, align 4, !tbaa !23
  %12 = sext i32 %11 to i64
  %13 = getelementptr inbounds %struct.b3Int4, ptr %10, i64 %12
  call void @llvm.memcpy.p0.p0.i64(ptr align 16 %7, ptr align 16 %13, i64 16, i1 false), !tbaa.struct !59
  %14 = getelementptr inbounds nuw %class.b3AlignedObjectArray, ptr %8, i32 0, i32 4
  %15 = load ptr, ptr %14, align 8, !tbaa !33
  %16 = load i32, ptr %6, align 4, !tbaa !23
  %17 = sext i32 %16 to i64
  %18 = getelementptr inbounds %struct.b3Int4, ptr %15, i64 %17
  %19 = getelementptr inbounds nuw %class.b3AlignedObjectArray, ptr %8, i32 0, i32 4
  %20 = load ptr, ptr %19, align 8, !tbaa !33
  %21 = load i32, ptr %5, align 4, !tbaa !23
  %22 = sext i32 %21 to i64
  %23 = getelementptr inbounds %struct.b3Int4, ptr %20, i64 %22
  call void @llvm.memcpy.p0.p0.i64(ptr align 16 %23, ptr align 16 %18, i64 16, i1 false), !tbaa.struct !59
  %24 = getelementptr inbounds nuw %class.b3AlignedObjectArray, ptr %8, i32 0, i32 4
  %25 = load ptr, ptr %24, align 8, !tbaa !33
  %26 = load i32, ptr %6, align 4, !tbaa !23
  %27 = sext i32 %26 to i64
  %28 = getelementptr inbounds %struct.b3Int4, ptr %25, i64 %27
  call void @llvm.memcpy.p0.p0.i64(ptr align 16 %28, ptr align 16 %7, i64 16, i1 false), !tbaa.struct !59
  call void @llvm.lifetime.end.p0(i64 16, ptr %7) #10
  ret void
}

; Function Attrs: inlinehint mustprogress nounwind uwtable
define linkonce_odr dso_local noundef nonnull align 16 dereferenceable(16) ptr @_ZN20b3AlignedObjectArrayI6b3Int4EixEi(ptr noundef nonnull align 8 dereferenceable(25) %0, i32 noundef %1) #1 comdat align 2 {
  %3 = alloca ptr, align 8
  %4 = alloca i32, align 4
  store ptr %0, ptr %3, align 8, !tbaa !26
  store i32 %1, ptr %4, align 4, !tbaa !23
  %5 = load ptr, ptr %3, align 8
  %6 = getelementptr inbounds nuw %class.b3AlignedObjectArray, ptr %5, i32 0, i32 4
  %7 = load ptr, ptr %6, align 8, !tbaa !33
  %8 = load i32, ptr %4, align 4, !tbaa !23
  %9 = sext i32 %8 to i64
  %10 = getelementptr inbounds %struct.b3Int4, ptr %7, i64 %9
  ret ptr %10
}

; Function Attrs: inlinehint mustprogress nounwind uwtable
define linkonce_odr dso_local noundef i32 @_ZNK20b3AlignedObjectArrayI6b3Int4E4sizeEv(ptr noundef nonnull align 8 dereferenceable(25) %0) #1 comdat align 2 {
  %2 = alloca ptr, align 8
  store ptr %0, ptr %2, align 8, !tbaa !26
  %3 = load ptr, ptr %2, align 8
  %4 = getelementptr inbounds nuw %class.b3AlignedObjectArray, ptr %3, i32 0, i32 1
  %5 = load i32, ptr %4, align 4, !tbaa !31
  ret i32 %5
}

; Function Attrs: mustprogress uwtable
define dso_local void @_ZN28b3SortedOverlappingPairCache26processAllOverlappingPairsEP17b3OverlapCallbackP12b3Dispatcher(ptr noundef nonnull align 8 dereferenceable(56) %0, ptr noundef %1, ptr noundef %2) unnamed_addr #0 align 2 {
  %4 = alloca ptr, align 8
  %5 = alloca ptr, align 8
  %6 = alloca ptr, align 8
  %7 = alloca i32, align 4
  %8 = alloca ptr, align 8
  store ptr %0, ptr %4, align 8, !tbaa !72
  store ptr %1, ptr %5, align 8, !tbaa !63
  store ptr %2, ptr %6, align 8, !tbaa !40
  %9 = load ptr, ptr %4, align 8
  call void @llvm.lifetime.start.p0(i64 4, ptr %7) #10
  store i32 0, ptr %7, align 4, !tbaa !23
  br label %10

10:                                               ; preds = %48, %3
  %11 = load i32, ptr %7, align 4, !tbaa !23
  %12 = getelementptr inbounds nuw %class.b3SortedOverlappingPairCache, ptr %9, i32 0, i32 1
  %13 = call noundef i32 @_ZNK20b3AlignedObjectArrayI6b3Int4E4sizeEv(ptr noundef nonnull align 8 dereferenceable(25) %12)
  %14 = icmp slt i32 %11, %13
  br i1 %14, label %15, label %49

15:                                               ; preds = %10
  call void @llvm.lifetime.start.p0(i64 8, ptr %8) #10
  %16 = getelementptr inbounds nuw %class.b3SortedOverlappingPairCache, ptr %9, i32 0, i32 1
  %17 = load i32, ptr %7, align 4, !tbaa !23
  %18 = call noundef nonnull align 16 dereferenceable(16) ptr @_ZN20b3AlignedObjectArrayI6b3Int4EixEi(ptr noundef nonnull align 8 dereferenceable(25) %16, i32 noundef %17)
  store ptr %18, ptr %8, align 8, !tbaa !30
  %19 = load ptr, ptr %5, align 8, !tbaa !63
  %20 = load ptr, ptr %8, align 8, !tbaa !30
  %21 = load ptr, ptr %19, align 8, !tbaa !9
  %22 = getelementptr inbounds ptr, ptr %21, i64 2
  %23 = load ptr, ptr %22, align 8
  %24 = call noundef zeroext i1 %23(ptr noundef nonnull align 8 dereferenceable(8) %19, ptr noundef nonnull align 16 dereferenceable(16) %20)
  br i1 %24, label %25, label %45

25:                                               ; preds = %15
  %26 = load ptr, ptr %8, align 8, !tbaa !30
  %27 = load ptr, ptr %6, align 8, !tbaa !40
  %28 = load ptr, ptr %9, align 8, !tbaa !9
  %29 = getelementptr inbounds ptr, ptr %28, i64 5
  %30 = load ptr, ptr %29, align 8
  call void %30(ptr noundef nonnull align 8 dereferenceable(56) %9, ptr noundef nonnull align 16 dereferenceable(16) %26, ptr noundef %27)
  %31 = load ptr, ptr %8, align 8, !tbaa !30
  %32 = getelementptr inbounds nuw %struct.b3Int4, ptr %31, i32 0, i32 0
  %33 = getelementptr inbounds nuw %struct.anon, ptr %32, i32 0, i32 0
  store i32 -1, ptr %33, align 16, !tbaa !38
  %34 = load ptr, ptr %8, align 8, !tbaa !30
  %35 = getelementptr inbounds nuw %struct.b3Int4, ptr %34, i32 0, i32 0
  %36 = getelementptr inbounds nuw %struct.anon, ptr %35, i32 0, i32 1
  store i32 -1, ptr %36, align 4, !tbaa !38
  %37 = getelementptr inbounds nuw %class.b3SortedOverlappingPairCache, ptr %9, i32 0, i32 1
  %38 = load i32, ptr %7, align 4, !tbaa !23
  %39 = getelementptr inbounds nuw %class.b3SortedOverlappingPairCache, ptr %9, i32 0, i32 1
  %40 = call noundef i32 @_ZNK20b3AlignedObjectArrayI6b3Int4E4sizeEv(ptr noundef nonnull align 8 dereferenceable(25) %39)
  %41 = sub nsw i32 %40, 1
  call void @_ZN20b3AlignedObjectArrayI6b3Int4E4swapEii(ptr noundef nonnull align 8 dereferenceable(25) %37, i32 noundef %38, i32 noundef %41)
  %42 = getelementptr inbounds nuw %class.b3SortedOverlappingPairCache, ptr %9, i32 0, i32 1
  call void @_ZN20b3AlignedObjectArrayI6b3Int4E8pop_backEv(ptr noundef nonnull align 8 dereferenceable(25) %42)
  %43 = load i32, ptr @b3g_overlappingPairs, align 4, !tbaa !23
  %44 = add nsw i32 %43, -1
  store i32 %44, ptr @b3g_overlappingPairs, align 4, !tbaa !23
  br label %48

45:                                               ; preds = %15
  %46 = load i32, ptr %7, align 4, !tbaa !23
  %47 = add nsw i32 %46, 1
  store i32 %47, ptr %7, align 4, !tbaa !23
  br label %48

48:                                               ; preds = %45, %25
  call void @llvm.lifetime.end.p0(i64 8, ptr %8) #10
  br label %10, !llvm.loop !80

49:                                               ; preds = %10
  call void @llvm.lifetime.end.p0(i64 4, ptr %7) #10
  ret void
}