; Function Attrs: mustprogress uwtable
define dso_local void @_ZN28b3SortedOverlappingPairCache26processAllOverlappingPairsEP17b3OverlapCallbackP12b3Dispatcher(ptr noundef nonnull align 8 dereferenceable(56) %0, ptr noundef %1, ptr noundef %2) unnamed_addr #0 align 2 {
  %.sroa.0.i = alloca %struct.anon, align 16
  %4 = getelementptr inbounds nuw i8, ptr %0, i64 12
  %5 = load i32, ptr %4, align 4, !tbaa !16
  %6 = icmp sgt i32 %5, 0
  br i1 %6, label %.lr.ph, label %._crit_edge

.lr.ph:                                           ; preds = %3
  %7 = getelementptr inbounds nuw i8, ptr %0, i64 24
  br label %8

8:                                                ; preds = %.lr.ph, %35
  %.010 = phi i32 [ 0, %.lr.ph ], [ %.1, %35 ]
  %9 = load ptr, ptr %7, align 8, !tbaa !15
  %10 = sext i32 %.010 to i64
  %11 = getelementptr inbounds %struct.b3Int4, ptr %9, i64 %10
  %12 = load ptr, ptr %1, align 8, !tbaa !4
  %13 = getelementptr inbounds nuw i8, ptr %12, i64 16
  %14 = load ptr, ptr %13, align 8
  %15 = tail call noundef zeroext i1 %14(ptr noundef nonnull align 8 dereferenceable(8) %1, ptr noundef nonnull align 16 dereferenceable(16) %11)
  br i1 %15, label %16, label %33

16:                                               ; preds = %8
  %17 = load ptr, ptr %0, align 8, !tbaa !4
  %18 = getelementptr inbounds nuw i8, ptr %17, i64 40
  %19 = load ptr, ptr %18, align 8
  tail call void %19(ptr noundef nonnull align 8 dereferenceable(56) %0, ptr noundef nonnull align 16 dereferenceable(16) %11, ptr noundef %2)
  store i32 -1, ptr %11, align 16, !tbaa !30
  %20 = getelementptr inbounds nuw i8, ptr %11, i64 4
  store i32 -1, ptr %20, align 4, !tbaa !30
  %21 = load i32, ptr %4, align 4, !tbaa !16
  %22 = add nsw i32 %21, -1
  call void @llvm.lifetime.start.p0(i64 16, ptr nonnull %.sroa.0.i)
  %23 = load ptr, ptr %7, align 8, !tbaa !15
  %24 = getelementptr inbounds %struct.b3Int4, ptr %23, i64 %10
  call void @llvm.memcpy.p0.p0.i64(ptr noundef nonnull align 16 dereferenceable(16) %.sroa.0.i, ptr noundef nonnull align 16 dereferenceable(16) %24, i64 16, i1 false), !tbaa.struct !29
  %25 = sext i32 %22 to i64
  %26 = getelementptr inbounds %struct.b3Int4, ptr %23, i64 %25
  tail call void @llvm.memcpy.p0.p0.i64(ptr noundef nonnull align 16 dereferenceable(16) %24, ptr noundef nonnull align 16 dereferenceable(16) %26, i64 16, i1 false), !tbaa.struct !29
  %27 = load ptr, ptr %7, align 8, !tbaa !15
  %28 = getelementptr inbounds %struct.b3Int4, ptr %27, i64 %25
  call void @llvm.memcpy.p0.p0.i64(ptr noundef nonnull align 16 dereferenceable(16) %28, ptr noundef nonnull align 16 dereferenceable(16) %.sroa.0.i, i64 16, i1 false), !tbaa.struct !29
  call void @llvm.lifetime.end.p0(i64 16, ptr nonnull %.sroa.0.i)
  %29 = load i32, ptr %4, align 4, !tbaa !16
  %30 = add nsw i32 %29, -1
  store i32 %30, ptr %4, align 4, !tbaa !16
  %31 = load i32, ptr @b3g_overlappingPairs, align 4, !tbaa !35
  %32 = add nsw i32 %31, -1
  store i32 %32, ptr @b3g_overlappingPairs, align 4, !tbaa !35
  br label %35

33:                                               ; preds = %8
  %34 = add nsw i32 %.010, 1
  %.pre = load i32, ptr %4, align 4, !tbaa !16
  br label %35

35:                                               ; preds = %33, %16
  %36 = phi i32 [ %30, %16 ], [ %.pre, %33 ]
  %.1 = phi i32 [ %.010, %16 ], [ %34, %33 ]
  %37 = icmp slt i32 %.1, %36
  br i1 %37, label %8, label %._crit_edge, !llvm.loop !59

._crit_edge:                                      ; preds = %35, %3
  ret void
}